; ModuleID = '6/3135.c'
source_filename = "6/3135.c"
target datalayout = "e-m:e-p270:32:32-p271:32:32-p272:64:64-i64:64-f80:128-n8:16:32:64-S128"
target triple = "x86_64-pc-linux-gnu"

@.str = private unnamed_addr constant [3 x i8] c"%d\00", align 1
@.str.1 = private unnamed_addr constant [5 x i8] c"%d%d\00", align 1
@.str.2 = private unnamed_addr constant [4 x i8] c"%d\0A\00", align 1

; Function Attrs: noinline nounwind uwtable
define dso_local i32 @main() #0 {
  %1 = alloca i32, align 4
  %2 = alloca i32, align 4
  %3 = alloca i32, align 4
  %4 = alloca i32, align 4
  %5 = alloca i32, align 4
  %6 = alloca [10000 x i32], align 16
  %7 = alloca [10000 x i32], align 16
  %8 = alloca i32, align 4
  %9 = alloca i32, align 4
  store i32 0, i32* %1, align 4
  %10 = call i32 (i8*, ...) @__isoc99_scanf(i8* getelementptr inbounds ([3 x i8], [3 x i8]* @.str, i64 0, i64 0), i32* %2)
  store i32 1, i32* %9, align 4
  br label %11

11:                                               ; preds = %78, %0
  %12 = load i32, i32* %9, align 4
  %13 = load i32, i32* %2, align 4
  %14 = icmp sle i32 %12, %13
  br i1 %14, label %15, label %81

15:                                               ; preds = %11
  %16 = call i32 (i8*, ...) @__isoc99_scanf(i8* getelementptr inbounds ([5 x i8], [5 x i8]* @.str.1, i64 0, i64 0), i32* %3, i32* %4)
  %17 = load i32, i32* %9, align 4
  %18 = sub nsw i32 %17, 1
  %19 = sext i32 %18 to i64
  %20 = getelementptr inbounds [10000 x i32], [10000 x i32]* %7, i64 0, i64 %19
  store i32 0, i32* %20, align 4
  store i32 1, i32* %5, align 4
  br label %21

21:                                               ; preds = %74, %15
  %22 = load i32, i32* %5, align 4
  %23 = icmp sle i32 %22, 10000
  br i1 %23, label %24, label %77

24:                                               ; preds = %21
  %25 = load i32, i32* %5, align 4
  %26 = sub nsw i32 %25, 1
  %27 = sext i32 %26 to i64
  %28 = getelementptr inbounds [10000 x i32], [10000 x i32]* %6, i64 0, i64 %27
  %29 = call i32 (i8*, ...) @__isoc99_scanf(i8* getelementptr inbounds ([3 x i8], [3 x i8]* @.str, i64 0, i64 0), i32* %28)
  %30 = load i32, i32* %5, align 4
  %31 = load i32, i32* %4, align 4
  %32 = icmp sle i32 %30, %31
  br i1 %32, label %51, label %33

33:                                               ; preds = %24
  %34 = load i32, i32* %5, align 4
  %35 = load i32, i32* %4, align 4
  %36 = srem i32 %34, %35
  %37 = icmp eq i32 %36, 1
  br i1 %37, label %51, label %38

38:                                               ; preds = %33
  %39 = load i32, i32* %5, align 4
  %40 = load i32, i32* %4, align 4
  %41 = srem i32 %39, %40
  %42 = icmp eq i32 %41, 0
  br i1 %42, label %51, label %43

43:                                               ; preds = %38
  %44 = load i32, i32* %5, align 4
  %45 = load i32, i32* %3, align 4
  %46 = load i32, i32* %4, align 4
  %47 = mul nsw i32 %45, %46
  %48 = load i32, i32* %4, align 4
  %49 = sub nsw i32 %47, %48
  %50 = icmp sgt i32 %44, %49
  br label %51

51:                                               ; preds = %43, %38, %33, %24
  %52 = phi i1 [ true, %38 ], [ true, %33 ], [ true, %24 ], [ %50, %43 ]
  %53 = zext i1 %52 to i32
  store i32 %53, i32* %8, align 4
  %54 = load i32, i32* %8, align 4
  %55 = load i32, i32* %5, align 4
  %56 = sub nsw i32 %55, 1
  %57 = sext i32 %56 to i64
  %58 = getelementptr inbounds [10000 x i32], [10000 x i32]* %6, i64 0, i64 %57
  %59 = load i32, i32* %58, align 4
  %60 = mul nsw i32 %54, %59
  %61 = load i32, i32* %9, align 4
  %62 = sub nsw i32 %61, 1
  %63 = sext i32 %62 to i64
  %64 = getelementptr inbounds [10000 x i32], [10000 x i32]* %7, i64 0, i64 %63
  %65 = load i32, i32* %64, align 4
  %66 = add nsw i32 %65, %60
  store i32 %66, i32* %64, align 4
  %67 = load i32, i32* %5, align 4
  %68 = load i32, i32* %3, align 4
  %69 = load i32, i32* %4, align 4
  %70 = mul nsw i32 %68, %69
  %71 = icmp sge i32 %67, %70
  br i1 %71, label %72, label %73

72:                                               ; preds = %51
  br label %77

73:                                               ; preds = %51
  br label %74

74:                                               ; preds = %73
  %75 = load i32, i32* %5, align 4
  %76 = add nsw i32 %75, 1
  store i32 %76, i32* %5, align 4
  br label %21

77:                                               ; preds = %72, %21
  br label %78

78:                                               ; preds = %77
  %79 = load i32, i32* %9, align 4
  %80 = add nsw i32 %79, 1
  store i32 %80, i32* %9, align 4
  br label %11

81:                                               ; preds = %11
  store i32 1, i32* %5, align 4
  br label %82

82:                                               ; preds = %93, %81
  %83 = load i32, i32* %5, align 4
  %84 = load i32, i32* %2, align 4
  %85 = icmp sle i32 %83, %84
  br i1 %85, label %86, label %96

86:                                               ; preds = %82
  %87 = load i32, i32* %5, align 4
  %88 = sub nsw i32 %87, 1
  %89 = sext i32 %88 to i64
  %90 = getelementptr inbounds [10000 x i32], [10000 x i32]* %7, i64 0, i64 %89
  %91 = load i32, i32* %90, align 4
  %92 = call i32 (i8*, ...) @printf(i8* getelementptr inbounds ([4 x i8], [4 x i8]* @.str.2, i64 0, i64 0), i32 %91)
  br label %93

93:                                               ; preds = %86
  %94 = load i32, i32* %5, align 4
  %95 = add nsw i32 %94, 1
  store i32 %95, i32* %5, align 4
  br label %82

96:                                               ; preds = %82
  ret i32 0
}

declare dso_local i32 @__isoc99_scanf(i8*, ...) #1

declare dso_local i32 @printf(i8*, ...) #1


!llvm.module.flags = !{!0}
!llvm.ident = !{!1}

!0 = !{i32 1, !"wchar_size", i32 4}
!1 = !{!"clang version 10.0.0-4ubuntu1 "}
